target datalayout = "e-m:e-p270:32:32-p271:32:32-p272:64:64-i64:64-i128:128-f80:128-n8:16:32:64-S128"
target triple = "x86_64-pc-linux-gnu"

%"class.llvm::SmallVectorBase" = type { ptr, i32, i32 }
%"class.std::__cxx11::basic_string" = type { %"struct.std::__cxx11::basic_string<char>::_Alloc_hider", i64, %union.anon.16 }
%"struct.std::__cxx11::basic_string<char>::_Alloc_hider" = type { ptr }
%union.anon.16 = type { i64, [8 x i8] }
%"class.std::optional.2" = type { %"struct.std::_Optional_base.3" }
%"struct.std::_Optional_base.3" = type { %"struct.std::_Optional_payload.5" }
%"struct.std::_Optional_payload.5" = type { %"struct.std::_Optional_payload_base.base", [7 x i8] }
%"struct.std::_Optional_payload_base.base" = type <{ %"union.std::_Optional_payload_base<unsigned long>::_Storage", i8 }>
%"union.std::_Optional_payload_base<unsigned long>::_Storage" = type { i64 }
%"class.llvm::SmallVector.26" = type { %"class.llvm::SmallVectorImpl.17", %"struct.llvm::SmallVectorStorage.27" }
%"class.llvm::SmallVectorImpl.17" = type { %"class.llvm::SmallVectorTemplateBase.18" }
%"class.llvm::SmallVectorTemplateBase.18" = type { %"class.llvm::SmallVectorTemplateCommon.19" }
%"class.llvm::SmallVectorTemplateCommon.19" = type { %"class.llvm::SmallVectorBase" }
%"struct.llvm::SmallVectorStorage.27" = type { [144 x i8] }
%"class.llvm::DWARFAcceleratorTable::Entry" = type { ptr, %"class.llvm::SmallVector.26" }
%"class.std::optional.57" = type { %"struct.std::_Optional_base.58" }
%"struct.std::_Optional_base.58" = type { %"struct.std::_Optional_payload.60" }
%"struct.std::_Optional_payload.60" = type { %"struct.std::_Optional_payload_base.base.62", [3 x i8] }
%"struct.std::_Optional_payload_base.base.62" = type <{ %"union.std::_Optional_payload_base<unsigned int>::_Storage", i8 }>
%"union.std::_Optional_payload_base<unsigned int>::_Storage" = type { i32 }
%"class.llvm::DWARFDebugNames::Entry" = type { %"class.llvm::DWARFAcceleratorTable::Entry", ptr, ptr }
%"class.llvm::DWARFDebugNames::ValueIterator" = type { ptr, i8, [7 x i8], %"class.std::optional.146", i64, %"class.std::__cxx11::basic_string", %"class.std::optional.57" }
%"class.std::optional.146" = type { %"struct.std::_Optional_base.147" }
%"struct.std::_Optional_base.147" = type { %"struct.std::_Optional_payload.149" }
%"struct.std::_Optional_payload.149" = type { %"struct.std::_Optional_payload.base.153", [7 x i8] }
%"struct.std::_Optional_payload.base.153" = type { %"struct.std::_Optional_payload_base.base.152" }
%"struct.std::_Optional_payload_base.base.152" = type <{ %"union.std::_Optional_payload_base<llvm::DWARFDebugNames::Entry>::_Storage", i8 }>
%"union.std::_Optional_payload_base<llvm::DWARFDebugNames::Entry>::_Storage" = type { %"class.llvm::DWARFDebugNames::Entry" }
%"struct.std::_Optional_payload_base.6" = type <{ %"union.std::_Optional_payload_base<unsigned long>::_Storage", i8, [7 x i8] }>

; Function Attrs: mustprogress nounwind uwtable
define linkonce_odr hidden noundef nonnull align 8 dereferenceable(8) ptr @_ZNSt22_Optional_payload_baseImE6_M_getEv(ptr noundef nonnull align 8 dereferenceable(9) %0) #0 comdat align 2 {
  %2 = alloca ptr, align 8
  store ptr %0, ptr %2, align 8
  %3 = load ptr, ptr %2, align 8
  %4 = getelementptr inbounds nuw %"struct.std::_Optional_payload_base.6", ptr %3, i32 0, i32 0
  ret ptr %4
}

; Function Attrs: mustprogress nounwind uwtable
define linkonce_odr hidden noundef nonnull align 8 dereferenceable(8) ptr @_ZNSt19_Optional_base_implImSt14_Optional_baseImLb1ELb1EEE6_M_getEv(ptr noundef nonnull align 1 dereferenceable(1) %0) #0 comdat align 2 {
  %2 = alloca ptr, align 8
  store ptr %0, ptr %2, align 8
  %3 = load ptr, ptr %2, align 8
  br label %4

4:                                                ; preds = %1
  br label %5

5:                                                ; preds = %4
  %6 = getelementptr inbounds nuw %"struct.std::_Optional_base.3", ptr %3, i32 0, i32 0
  %7 = call noundef nonnull align 8 dereferenceable(8) ptr @_ZNSt22_Optional_payload_baseImE6_M_getEv(ptr noundef nonnull align 8 dereferenceable(9) %6) #13
  ret ptr %7
}

; Function Attrs: mustprogress nounwind uwtable
define linkonce_odr hidden noundef zeroext i1 @_ZNKSt19_Optional_base_implImSt14_Optional_baseImLb1ELb1EEE13_M_is_engagedEv(ptr noundef nonnull align 1 dereferenceable(1) %0) #0 comdat align 2 {
  %2 = alloca ptr, align 8
  store ptr %0, ptr %2, align 8
  %3 = load ptr, ptr %2, align 8
  %4 = getelementptr inbounds nuw %"struct.std::_Optional_base.3", ptr %3, i32 0, i32 0
  %5 = getelementptr inbounds nuw %"struct.std::_Optional_payload_base.6", ptr %4, i32 0, i32 1
  %6 = load i8, ptr %5, align 8
  %7 = trunc i8 %6 to i1
  ret i1 %7
}

; Function Attrs: mustprogress nounwind uwtable
define linkonce_odr hidden noundef nonnull align 8 dereferenceable(8) ptr @_ZNRSt8optionalImEdeEv(ptr noundef nonnull align 8 dereferenceable(16) %0) #0 comdat align 2 {
  %2 = alloca ptr, align 8
  store ptr %0, ptr %2, align 8
  %3 = load ptr, ptr %2, align 8
  %4 = call noundef nonnull align 8 dereferenceable(8) ptr @_ZNSt19_Optional_base_implImSt14_Optional_baseImLb1ELb1EEE6_M_getEv(ptr noundef nonnull align 1 dereferenceable(1) %3) #13
  ret ptr %4
}

; Function Attrs: mustprogress nounwind uwtable
define linkonce_odr hidden noundef zeroext i1 @_ZNKSt8optionalImEcvbEv(ptr noundef nonnull align 8 dereferenceable(16) %0) #0 comdat align 2 {
  %2 = alloca ptr, align 8
  store ptr %0, ptr %2, align 8
  %3 = load ptr, ptr %2, align 8
  %4 = call noundef zeroext i1 @_ZNKSt19_Optional_base_implImSt14_Optional_baseImLb1ELb1EEE13_M_is_engagedEv(ptr noundef nonnull align 1 dereferenceable(1) %3) #13
  ret i1 %4
}

; Function Attrs: mustprogress nounwind uwtable
define dso_local noundef zeroext i1 @_ZN4llvm15DWARFDebugNames13ValueIterator18findInCurrentIndexEv(ptr noundef nonnull align 8 dereferenceable(256) %0) #0 align 2 {
  %2 = alloca i1, align 1
  %3 = alloca ptr, align 8
  %4 = alloca %"class.std::optional.2", align 8
  store ptr %0, ptr %3, align 8
  %5 = load ptr, ptr %3, align 8
  %6 = call { i64, i8 } @_ZN4llvm15DWARFDebugNames13ValueIterator29findEntryOffsetInCurrentIndexEv(ptr noundef nonnull align 8 dereferenceable(256) %5)
  %7 = getelementptr inbounds nuw %"class.std::optional.2", ptr %4, i32 0, i32 0
  %8 = getelementptr inbounds nuw %"struct.std::_Optional_base.3", ptr %7, i32 0, i32 0
  %9 = getelementptr inbounds nuw { i64, i8 }, ptr %8, i32 0, i32 0
  %10 = extractvalue { i64, i8 } %6, 0
  store i64 %10, ptr %9, align 8
  %11 = getelementptr inbounds nuw { i64, i8 }, ptr %8, i32 0, i32 1
  %12 = extractvalue { i64, i8 } %6, 1
  store i8 %12, ptr %11, align 8
  %13 = call noundef zeroext i1 @_ZNKSt8optionalImEcvbEv(ptr noundef nonnull align 8 dereferenceable(16) %4) #13
  br i1 %13, label %15, label %14

14:                                               ; preds = %1
  store i1 false, ptr %2, align 1
  br label %20

15:                                               ; preds = %1
  %16 = call noundef nonnull align 8 dereferenceable(8) ptr @_ZNRSt8optionalImEdeEv(ptr noundef nonnull align 8 dereferenceable(16) %4) #13
  %17 = load i64, ptr %16, align 8
  %18 = getelementptr inbounds nuw %"class.llvm::DWARFDebugNames::ValueIterator", ptr %5, i32 0, i32 4
  store i64 %17, ptr %18, align 8
  %19 = call noundef zeroext i1 @_ZN4llvm15DWARFDebugNames13ValueIterator23getEntryAtCurrentOffsetEv(ptr noundef nonnull align 8 dereferenceable(256) %5)
  store i1 %19, ptr %2, align 1
  br label %20

20:                                               ; preds = %15, %14
  %21 = load i1, ptr %2, align 1
  ret i1 %21
}