; Function Attrs: mustprogress nounwind uwtable
define dso_local noundef zeroext i1 @_ZN4llvm15DWARFDebugNames13ValueIterator18findInCurrentIndexEv(ptr noundef nonnull align 8 dereferenceable(256) %0) local_unnamed_addr #3 align 2 {
  %2 = tail call { i64, i8 } @_ZN4llvm15DWARFDebugNames13ValueIterator29findEntryOffsetInCurrentIndexEv(ptr noundef nonnull align 8 dereferenceable(256) %0)
  %3 = extractvalue { i64, i8 } %2, 1
  %4 = trunc i8 %3 to i1
  br i1 %4, label %5, label %9

5:                                                ; preds = %1
  %6 = extractvalue { i64, i8 } %2, 0
  %7 = getelementptr inbounds nuw i8, ptr %0, i64 208
  store i64 %6, ptr %7, align 8
  %8 = tail call noundef zeroext i1 @_ZN4llvm15DWARFDebugNames13ValueIterator23getEntryAtCurrentOffsetEv(ptr noundef nonnull align 8 dereferenceable(256) %0)
  br label %9

9:                                                ; preds = %1, %5
  %.0 = phi i1 [ %8, %5 ], [ false, %1 ]
  ret i1 %.0
}